; Function Attrs: nounwind uwtable
define ptr @l_Lean_Grind_CommRing_Poly_denoteExpr_go___rarg___lambda__2(ptr noundef %0, ptr noundef %1, ptr noundef %2, ptr noundef %3, ptr noundef %4, ptr noundef %5) #0 {
  %7 = ptrtoint ptr %0 to i64
  %8 = and i64 %7, 1
  %.not = icmp eq i64 %8, 0
  br i1 %.not, label %9, label %lean_inc.exit

9:                                                ; preds = %6
  %.val.i = load i32, ptr %0, align 4, !tbaa !6
  %10 = icmp sgt i32 %.val.i, 0
  br i1 %10, label %11, label %13, !prof !5

11:                                               ; preds = %9
  %12 = add nuw i32 %.val.i, 1
  store i32 %12, ptr %0, align 4, !tbaa !6
  br label %lean_inc.exit

13:                                               ; preds = %9
  %.not.i = icmp eq i32 %.val.i, 0
  br i1 %.not.i, label %lean_inc.exit, label %14

14:                                               ; preds = %13
  tail call void @lean_inc_ref_cold(ptr noundef nonnull %0) #3
  br label %lean_inc.exit

lean_inc.exit:                                    ; preds = %14, %13, %11, %6
  %15 = getelementptr inbounds nuw i8, ptr %0, i64 16
  %16 = load ptr, ptr %15, align 8, !tbaa !11
  %17 = ptrtoint ptr %16 to i64
  %18 = and i64 %17, 1
  %.not.i14 = icmp eq i64 %18, 0
  br i1 %.not.i14, label %19, label %lean_inc.exit.i

19:                                               ; preds = %lean_inc.exit
  %.val.i.i = load i32, ptr %16, align 4, !tbaa !6
  %20 = icmp sgt i32 %.val.i.i, 0
  br i1 %20, label %21, label %23, !prof !5

21:                                               ; preds = %19
  %22 = add nuw i32 %.val.i.i, 1
  store i32 %22, ptr %16, align 4, !tbaa !6
  br label %lean_inc.exit.i

23:                                               ; preds = %19
  %.not.i.i = icmp eq i32 %.val.i.i, 0
  br i1 %.not.i.i, label %lean_inc.exit.i, label %24

24:                                               ; preds = %23
  tail call void @lean_inc_ref_cold(ptr noundef nonnull %16) #3
  br label %lean_inc.exit.i

lean_inc.exit.i:                                  ; preds = %24, %23, %21, %lean_inc.exit
  tail call void @lean_inc_heartbeat() #3
  %25 = tail call noalias ptr @mi_malloc_small(i64 noundef 40) #3
  %26 = icmp eq ptr %25, null
  br i1 %26, label %27, label %l___private_Lean_Meta_Tactic_Grind_Arith_CommRing_DenoteExpr_0__Lean_Meta_Grind_Arith_CommRing_denoteNum___rarg.exit

27:                                               ; preds = %lean_inc.exit.i
  tail call void @lean_internal_panic_out_of_memory() #4
  unreachable

l___private_Lean_Meta_Tactic_Grind_Arith_CommRing_DenoteExpr_0__Lean_Meta_Grind_Arith_CommRing_denoteNum___rarg.exit: ; preds = %lean_inc.exit.i
  %28 = getelementptr inbounds nuw i8, ptr %25, i64 4
  store i32 1, ptr %25, align 4, !tbaa !6
  store i32 -184549336, ptr %28, align 4
  %29 = getelementptr inbounds nuw i8, ptr %25, i64 8
  store ptr @l___private_Lean_Meta_Tactic_Grind_Arith_CommRing_DenoteExpr_0__Lean_Meta_Grind_Arith_CommRing_denoteNum___rarg___lambda__1___boxed, ptr %29, align 8, !tbaa !11
  %30 = getelementptr inbounds nuw i8, ptr %25, i64 16
  store i16 3, ptr %30, align 8, !tbaa !13
  %31 = getelementptr inbounds nuw i8, ptr %25, i64 18
  store i16 2, ptr %31, align 2, !tbaa !13
  %32 = getelementptr inbounds nuw i8, ptr %25, i64 24
  store ptr %2, ptr %32, align 8, !tbaa !11
  %33 = getelementptr inbounds nuw i8, ptr %25, i64 32
  store ptr %0, ptr %33, align 8, !tbaa !11
  %34 = tail call ptr @lean_apply_4(ptr noundef %16, ptr noundef nonnull inttoptr (i64 1 to ptr), ptr noundef nonnull inttoptr (i64 1 to ptr), ptr noundef %1, ptr noundef nonnull %25) #3
  tail call void @lean_inc_heartbeat() #3
  %35 = tail call noalias ptr @mi_malloc_small(i64 noundef 48) #3
  %36 = icmp eq ptr %35, null
  br i1 %36, label %37, label %lean_alloc_closure.exit

37:                                               ; preds = %l___private_Lean_Meta_Tactic_Grind_Arith_CommRing_DenoteExpr_0__Lean_Meta_Grind_Arith_CommRing_denoteNum___rarg.exit
  tail call void @lean_internal_panic_out_of_memory() #4
  unreachable

lean_alloc_closure.exit:                          ; preds = %l___private_Lean_Meta_Tactic_Grind_Arith_CommRing_DenoteExpr_0__Lean_Meta_Grind_Arith_CommRing_denoteNum___rarg.exit
  %38 = getelementptr inbounds nuw i8, ptr %35, i64 4
  store i32 1, ptr %35, align 4, !tbaa !6
  store i32 -184549328, ptr %38, align 4
  %39 = getelementptr inbounds nuw i8, ptr %35, i64 8
  store ptr @l_Lean_Grind_CommRing_Poly_denoteExpr_go___rarg___lambda__1, ptr %39, align 8, !tbaa !11
  %40 = getelementptr inbounds nuw i8, ptr %35, i64 16
  store i16 4, ptr %40, align 8, !tbaa !13
  %41 = getelementptr inbounds nuw i8, ptr %35, i64 18
  store i16 3, ptr %41, align 2, !tbaa !13
  %42 = getelementptr inbounds nuw i8, ptr %35, i64 24
  store ptr %0, ptr %42, align 8, !tbaa !11
  %43 = getelementptr inbounds nuw i8, ptr %35, i64 32
  store ptr %5, ptr %43, align 8, !tbaa !11
  %44 = getelementptr inbounds nuw i8, ptr %35, i64 40
  store ptr %3, ptr %44, align 8, !tbaa !11
  %45 = tail call ptr @lean_apply_4(ptr noundef %4, ptr noundef nonnull inttoptr (i64 1 to ptr), ptr noundef nonnull inttoptr (i64 1 to ptr), ptr noundef %34, ptr noundef nonnull %35) #3
  ret ptr %45
}